; Function Attrs: mustprogress uwtable
define dso_local void @_ZN16btDbvtBroadphase18setAabbForceUpdateEP17btBroadphaseProxyRK9btVector3S4_P12btDispatcher(ptr noundef nonnull align 8 dereferenceable(256) %this, ptr noundef %absproxy, ptr nocapture noundef nonnull readonly align 4 dereferenceable(16) %aabbMin, ptr nocapture noundef nonnull readonly align 4 dereferenceable(16) %aabbMax, ptr nocapture noundef readnone %0) local_unnamed_addr #0 align 2 personality ptr @__gxx_personality_v0 {
entry:
  %aabb = alloca %struct.btDbvtAabbMm, align 4
  %collider = alloca %struct.btDbvtTreeCollider, align 8
  call void @llvm.memcpy.p0.p0.i64(ptr noundef nonnull align 4 dereferenceable(16) %aabb, ptr noundef nonnull align 4 dereferenceable(16) %aabbMin, i64 16, i1 false)
  %mx2.i = getelementptr inbounds i8, ptr %aabb, i64 16
  call void @llvm.memcpy.p0.p0.i64(ptr noundef nonnull align 4 dereferenceable(16) %mx2.i, ptr noundef nonnull align 4 dereferenceable(16) %aabbMax, i64 16, i1 false)
  %stage = getelementptr inbounds i8, ptr %absproxy, i64 80
  %1 = load i32, ptr %stage, align 8
  %cmp = icmp eq i32 %1, 2
  br i1 %cmp, label %if.then, label %if.else

if.then:                                          ; preds = %entry
  %m_sets = getelementptr inbounds i8, ptr %this, i64 8
  %arrayidx = getelementptr inbounds i8, ptr %this, i64 72
  %leaf = getelementptr inbounds i8, ptr %absproxy, i64 56
  %2 = load ptr, ptr %leaf, align 8
  tail call void @_ZN6btDbvt6removeEP10btDbvtNode(ptr noundef nonnull align 8 dereferenceable(64) %arrayidx, ptr noundef %2)
  %call = call noundef ptr @_ZN6btDbvt6insertERK12btDbvtAabbMmPv(ptr noundef nonnull align 8 dereferenceable(64) %m_sets, ptr noundef nonnull align 4 dereferenceable(32) %aabb, ptr noundef nonnull %absproxy)
  store ptr %call, ptr %leaf, align 8
  br label %if.end

if.else:                                          ; preds = %entry
  %m_updates_call = getelementptr inbounds i8, ptr %this, i64 196
  %3 = load i32, ptr %m_updates_call, align 4
  %inc = add i32 %3, 1
  store i32 %inc, ptr %m_updates_call, align 4
  %m_sets5 = getelementptr inbounds i8, ptr %this, i64 8
  %leaf7 = getelementptr inbounds i8, ptr %absproxy, i64 56
  %4 = load ptr, ptr %leaf7, align 8
  call void @_ZN6btDbvt6updateEP10btDbvtNodeR12btDbvtAabbMm(ptr noundef nonnull align 8 dereferenceable(64) %m_sets5, ptr noundef %4, ptr noundef nonnull align 4 dereferenceable(32) %aabb)
  %m_updates_done = getelementptr inbounds i8, ptr %this, i64 200
  %5 = load i32, ptr %m_updates_done, align 8
  %inc8 = add i32 %5, 1
  store i32 %inc8, ptr %m_updates_done, align 8
  br label %if.end

if.end:                                           ; preds = %if.else, %if.then
  %m_stageRoots = getelementptr inbounds i8, ptr %this, i64 136
  %6 = load i32, ptr %stage, align 8
  %idxprom = sext i32 %6 to i64
  %arrayidx10 = getelementptr inbounds [3 x ptr], ptr %m_stageRoots, i64 0, i64 %idxprom
  %links.i = getelementptr inbounds i8, ptr %absproxy, i64 64
  %7 = load ptr, ptr %links.i, align 8
  %tobool.not.i = icmp eq ptr %7, null
  %arrayidx8.i = getelementptr inbounds i8, ptr %absproxy, i64 72
  %8 = load ptr, ptr %arrayidx8.i, align 8
  %arrayidx6.i = getelementptr inbounds i8, ptr %7, i64 72
  %list.sink.i = select i1 %tobool.not.i, ptr %arrayidx10, ptr %arrayidx6.i
  store ptr %8, ptr %list.sink.i, align 8
  %tobool11.not.i = icmp eq ptr %8, null
  br i1 %tobool11.not.i, label %_ZL10listremoveI11btDbvtProxyEvPT_RS2_.exit, label %if.then12.i

if.then12.i:                                      ; preds = %if.end
  %9 = load ptr, ptr %links.i, align 8
  %links17.i = getelementptr inbounds i8, ptr %8, i64 64
  store ptr %9, ptr %links17.i, align 8
  br label %_ZL10listremoveI11btDbvtProxyEvPT_RS2_.exit

_ZL10listremoveI11btDbvtProxyEvPT_RS2_.exit:      ; preds = %if.end, %if.then12.i
  %m_aabbMin = getelementptr inbounds i8, ptr %absproxy, i64 20
  call void @llvm.memcpy.p0.p0.i64(ptr noundef nonnull align 4 dereferenceable(16) %m_aabbMin, ptr noundef nonnull align 4 dereferenceable(16) %aabbMin, i64 16, i1 false)
  %m_aabbMax = getelementptr inbounds i8, ptr %absproxy, i64 36
  call void @llvm.memcpy.p0.p0.i64(ptr noundef nonnull align 4 dereferenceable(16) %m_aabbMax, ptr noundef nonnull align 4 dereferenceable(16) %aabbMax, i64 16, i1 false)
  %m_stageCurrent = getelementptr inbounds i8, ptr %this, i64 172
  %10 = load i32, ptr %m_stageCurrent, align 4
  store i32 %10, ptr %stage, align 8
  %idxprom14 = sext i32 %10 to i64
  %arrayidx15 = getelementptr inbounds [3 x ptr], ptr %m_stageRoots, i64 0, i64 %idxprom14
  store ptr null, ptr %links.i, align 8
  %11 = load ptr, ptr %arrayidx15, align 8
  store ptr %11, ptr %arrayidx8.i, align 8
  %tobool.not.i16 = icmp eq ptr %11, null
  br i1 %tobool.not.i16, label %_ZL10listappendI11btDbvtProxyEvPT_RS2_.exit, label %if.then.i

if.then.i:                                        ; preds = %_ZL10listremoveI11btDbvtProxyEvPT_RS2_.exit
  %links3.i = getelementptr inbounds i8, ptr %11, i64 64
  store ptr %absproxy, ptr %links3.i, align 8
  br label %_ZL10listappendI11btDbvtProxyEvPT_RS2_.exit

_ZL10listappendI11btDbvtProxyEvPT_RS2_.exit:      ; preds = %_ZL10listremoveI11btDbvtProxyEvPT_RS2_.exit, %if.then.i
  store ptr %absproxy, ptr %arrayidx15, align 8
  %m_needcleanup = getelementptr inbounds i8, ptr %this, i64 222
  store i8 1, ptr %m_needcleanup, align 2
  %m_deferedcollide = getelementptr inbounds i8, ptr %this, i64 221
  %12 = load i8, ptr %m_deferedcollide, align 1
  %13 = and i8 %12, 1
  %tobool17.not = icmp eq i8 %13, 0
  br i1 %tobool17.not, label %if.then18, label %if.end32

if.then18:                                        ; preds = %_ZL10listappendI11btDbvtProxyEvPT_RS2_.exit
  store ptr getelementptr inbounds ({ [10 x ptr] }, ptr @_ZTV18btDbvtTreeCollider, i64 0, i32 0, i64 2), ptr %collider, align 8
  %pbp.i = getelementptr inbounds i8, ptr %collider, i64 8
  store ptr %this, ptr %pbp.i, align 8
  %arrayidx20 = getelementptr inbounds i8, ptr %this, i64 72
  %14 = load ptr, ptr %arrayidx20, align 8
  %leaf23 = getelementptr inbounds i8, ptr %absproxy, i64 56
  %15 = load ptr, ptr %leaf23, align 8
  call void @_ZN6btDbvt24collideTTpersistentStackEPK10btDbvtNodeS2_RNS_8ICollideE(ptr noundef nonnull align 8 dereferenceable(64) %arrayidx20, ptr noundef %14, ptr noundef %15, ptr noundef nonnull align 8 dereferenceable(8) %collider)
  %m_sets19 = getelementptr inbounds i8, ptr %this, i64 8
  %16 = load ptr, ptr %m_sets19, align 8
  %17 = load ptr, ptr %leaf23, align 8
  call void @_ZN6btDbvt24collideTTpersistentStackEPK10btDbvtNodeS2_RNS_8ICollideE(ptr noundef nonnull align 8 dereferenceable(64) %m_sets19, ptr noundef %16, ptr noundef %17, ptr noundef nonnull align 8 dereferenceable(8) %collider)
  br label %if.end32

if.end32:                                         ; preds = %if.then18, %_ZL10listappendI11btDbvtProxyEvPT_RS2_.exit
  ret void
}